target datalayout = "e-m:e-p270:32:32-p271:32:32-p272:64:64-i64:64-i128:128-f80:128-n8:16:32:64-S128"
target triple = "x86_64-pc-linux-gnu"

; Function Attrs: inlinehint mustprogress nounwind uwtable
define linkonce_odr dso_local void @_ZN4absl13base_internal16UnalignedStore16EPvt(ptr noundef %0, i16 noundef zeroext %1) #9 comdat {
  %3 = alloca ptr, align 8
  %4 = alloca i16, align 2
  store ptr %0, ptr %3, align 8, !tbaa !36
  store i16 %1, ptr %4, align 2, !tbaa !37
  %5 = load ptr, ptr %3, align 8, !tbaa !36
  call void @llvm.memcpy.p0.p0.i64(ptr align 1 %5, ptr align 2 %4, i64 2, i1 false)
  ret void
}

; Function Attrs: inlinehint mustprogress nounwind uwtable
define linkonce_odr dso_local noundef zeroext i16 @_ZN4absl13little_endian10FromHost16Et(i16 noundef zeroext %0) #9 comdat {
  %2 = alloca i16, align 2
  store i16 %0, ptr %2, align 2, !tbaa !37
  %3 = load i16, ptr %2, align 2, !tbaa !37
  ret i16 %3
}

; Function Attrs: noinline noreturn nounwind uwtable
define linkonce_odr hidden void @__clang_call_terminate(ptr noundef %0) #11 comdat {
  %2 = call ptr @__cxa_begin_catch(ptr %0) #16
  call void @_ZSt9terminatev() #17
  unreachable
}

; Function Attrs: alwaysinline mustprogress nounwind uwtable
define linkonce_odr dso_local noundef i32 @_ZN4absl16numeric_internal28CountTrailingZeroesNonzero64Em(i64 noundef %0) #13 comdat {
  %2 = alloca i64, align 8
  store i64 %0, ptr %2, align 8, !tbaa !12
  %3 = load i64, ptr %2, align 8, !tbaa !12
  %4 = call i64 @llvm.cttz.i64(i64 %3, i1 true)
  %5 = trunc i64 %4 to i32
  ret i32 %5
}

; Function Attrs: inlinehint mustprogress uwtable
define linkonce_odr dso_local void @_ZN4absl13little_endian7Store16EPvt(ptr noundef %0, i16 noundef zeroext %1) #2 comdat {
  %3 = alloca ptr, align 8
  %4 = alloca i16, align 2
  store ptr %0, ptr %3, align 8, !tbaa !36
  store i16 %1, ptr %4, align 2, !tbaa !37
  %5 = load ptr, ptr %3, align 8, !tbaa !36
  %6 = load i16, ptr %4, align 2, !tbaa !37
  %7 = call noundef zeroext i16 @_ZN4absl13little_endian10FromHost16Et(i16 noundef zeroext %6)
  call void @_ZN4absl13base_internal16UnalignedStore16EPvt(ptr noundef %5, i16 noundef zeroext %7)
  ret void
}

; Function Attrs: inlinehint mustprogress nounwind uwtable
define linkonce_odr dso_local void @_ZN4absl13base_internal16UnalignedStore64EPvm(ptr noundef %0, i64 noundef %1) #9 comdat {
  %3 = alloca ptr, align 8
  %4 = alloca i64, align 8
  store ptr %0, ptr %3, align 8, !tbaa !36
  store i64 %1, ptr %4, align 8, !tbaa !12
  %5 = load ptr, ptr %3, align 8, !tbaa !36
  call void @llvm.memcpy.p0.p0.i64(ptr align 1 %5, ptr align 8 %4, i64 8, i1 false)
  ret void
}

; Function Attrs: inlinehint mustprogress nounwind uwtable
define linkonce_odr dso_local noundef i64 @_ZN4absl13little_endian10FromHost64Em(i64 noundef %0) #9 comdat {
  %2 = alloca i64, align 8
  store i64 %0, ptr %2, align 8, !tbaa !12
  %3 = load i64, ptr %2, align 8, !tbaa !12
  ret i64 %3
}

; Function Attrs: alwaysinline mustprogress nounwind uwtable
define linkonce_odr dso_local noundef i32 @_ZN4absl16numeric_internal19CountTrailingZeroesImEEiT_(i64 noundef %0) #13 comdat personality ptr @__gxx_personality_v0 {
  %2 = alloca i64, align 8
  store i64 %0, ptr %2, align 8, !tbaa !12
  %3 = load i64, ptr %2, align 8, !tbaa !12
  %4 = icmp eq i64 %3, 0
  br i1 %4, label %5, label %6

5:                                                ; preds = %1
  br label %10

6:                                                ; preds = %1
  %7 = load i64, ptr %2, align 8, !tbaa !12
  %8 = invoke noundef i32 @_ZN4absl16numeric_internal28CountTrailingZeroesNonzero64Em(i64 noundef %7)
          to label %9 unwind label %12

9:                                                ; preds = %6
  br label %10

10:                                               ; preds = %9, %5
  %11 = phi i32 [ 64, %5 ], [ %8, %9 ]
  ret i32 %11

12:                                               ; preds = %6
  %13 = landingpad { ptr, i32 }
          catch ptr null
  %14 = extractvalue { ptr, i32 } %13, 0
  call void @__clang_call_terminate(ptr %14) #17
  unreachable
}

; Function Attrs: inlinehint mustprogress uwtable
define internal noundef ptr @_ZN4absl12_GLOBAL__N_113EncodeHundredEjPc(i32 noundef %0, ptr noundef %1) #2 {
  %3 = alloca i32, align 4
  %4 = alloca ptr, align 8
  %5 = alloca i32, align 4
  %6 = alloca i32, align 4
  %7 = alloca i32, align 4
  %8 = alloca i32, align 4
  store i32 %0, ptr %3, align 4, !tbaa !34
  store ptr %1, ptr %4, align 8, !tbaa !14
  call void @llvm.lifetime.start.p0(i64 4, ptr %5) #16
  %9 = load i32, ptr %3, align 4, !tbaa !34
  %10 = sub i32 %9, 10
  %11 = ashr i32 %10, 8
  store i32 %11, ptr %5, align 4, !tbaa !34
  call void @llvm.lifetime.start.p0(i64 4, ptr %6) #16
  %12 = load i32, ptr %3, align 4, !tbaa !34
  %13 = zext i32 %12 to i64
  %14 = mul i64 %13, 103
  %15 = udiv i64 %14, 1024
  %16 = trunc i64 %15 to i32
  store i32 %16, ptr %6, align 4, !tbaa !34
  call void @llvm.lifetime.start.p0(i64 4, ptr %7) #16
  %17 = load i32, ptr %3, align 4, !tbaa !34
  %18 = load i32, ptr %6, align 4, !tbaa !34
  %19 = mul i32 10, %18
  %20 = sub i32 %17, %19
  store i32 %20, ptr %7, align 4, !tbaa !34
  call void @llvm.lifetime.start.p0(i64 4, ptr %8) #16
  %21 = load i32, ptr %6, align 4, !tbaa !34
  %22 = add i32 12336, %21
  %23 = load i32, ptr %7, align 4, !tbaa !34
  %24 = shl i32 %23, 8
  %25 = add i32 %22, %24
  store i32 %25, ptr %8, align 4, !tbaa !34
  %26 = load i32, ptr %5, align 4, !tbaa !34
  %27 = and i32 %26, 8
  %28 = load i32, ptr %8, align 4, !tbaa !34
  %29 = lshr i32 %28, %27
  store i32 %29, ptr %8, align 4, !tbaa !34
  %30 = load ptr, ptr %4, align 8, !tbaa !14
  %31 = load i32, ptr %8, align 4, !tbaa !34
  %32 = trunc i32 %31 to i16
  call void @_ZN4absl13little_endian7Store16EPvt(ptr noundef %30, i16 noundef zeroext %32)
  %33 = load ptr, ptr %4, align 8, !tbaa !14
  %34 = getelementptr inbounds i8, ptr %33, i64 2
  %35 = load i32, ptr %5, align 4, !tbaa !34
  %36 = sext i32 %35 to i64
  %37 = getelementptr inbounds i8, ptr %34, i64 %36
  call void @llvm.lifetime.end.p0(i64 4, ptr %8) #16
  call void @llvm.lifetime.end.p0(i64 4, ptr %7) #16
  call void @llvm.lifetime.end.p0(i64 4, ptr %6) #16
  call void @llvm.lifetime.end.p0(i64 4, ptr %5) #16
  ret ptr %37
}

; Function Attrs: inlinehint mustprogress uwtable
define linkonce_odr dso_local void @_ZN4absl13little_endian7Store64EPvm(ptr noundef %0, i64 noundef %1) #2 comdat {
  %3 = alloca ptr, align 8
  %4 = alloca i64, align 8
  store ptr %0, ptr %3, align 8, !tbaa !36
  store i64 %1, ptr %4, align 8, !tbaa !12
  %5 = load ptr, ptr %3, align 8, !tbaa !36
  %6 = load i64, ptr %4, align 8, !tbaa !12
  %7 = call noundef i64 @_ZN4absl13little_endian10FromHost64Em(i64 noundef %6)
  call void @_ZN4absl13base_internal16UnalignedStore64EPvm(ptr noundef %5, i64 noundef %7)
  ret void
}

; Function Attrs: inlinehint mustprogress nounwind uwtable
define linkonce_odr dso_local noundef i32 @_ZN4absl11countr_zeroImEENSt9enable_ifIXsr3std11is_unsignedIT_EE5valueEiE4typeES2_(i64 noundef %0) #9 comdat {
  %2 = alloca i64, align 8
  store i64 %0, ptr %2, align 8, !tbaa !12
  %3 = load i64, ptr %2, align 8, !tbaa !12
  %4 = call noundef i32 @_ZN4absl16numeric_internal19CountTrailingZeroesImEEiT_(i64 noundef %3) #16
  ret i32 %4
}

; Function Attrs: inlinehint mustprogress nounwind uwtable
define internal noundef i64 @_ZN4absl12_GLOBAL__N_118PrepareEightDigitsEj(i32 noundef %0) #9 {
  %2 = alloca i32, align 4
  %3 = alloca i32, align 4
  %4 = alloca i32, align 4
  %5 = alloca i64, align 8
  %6 = alloca i64, align 8
  %7 = alloca i64, align 8
  %8 = alloca i64, align 8
  %9 = alloca i64, align 8
  store i32 %0, ptr %2, align 4, !tbaa !34
  %10 = load i32, ptr %2, align 4, !tbaa !34
  %11 = icmp ult i32 %10, 100000000
  call void @llvm.assume(i1 %11)
  call void @llvm.lifetime.start.p0(i64 4, ptr %3) #16
  %12 = load i32, ptr %2, align 4, !tbaa !34
  %13 = udiv i32 %12, 10000
  store i32 %13, ptr %3, align 4, !tbaa !34
  call void @llvm.lifetime.start.p0(i64 4, ptr %4) #16
  %14 = load i32, ptr %2, align 4, !tbaa !34
  %15 = urem i32 %14, 10000
  store i32 %15, ptr %4, align 4, !tbaa !34
  call void @llvm.lifetime.start.p0(i64 8, ptr %5) #16
  %16 = load i32, ptr %3, align 4, !tbaa !34
  %17 = zext i32 %16 to i64
  %18 = load i32, ptr %4, align 4, !tbaa !34
  %19 = zext i32 %18 to i64
  %20 = shl i64 %19, 32
  %21 = or i64 %17, %20
  store i64 %21, ptr %5, align 8, !tbaa !12
  call void @llvm.lifetime.start.p0(i64 8, ptr %6) #16
  %22 = load i64, ptr %5, align 8, !tbaa !12
  %23 = mul i64 %22, 10486
  %24 = udiv i64 %23, 1048576
  %25 = and i64 %24, 545460846719
  store i64 %25, ptr %6, align 8, !tbaa !12
  call void @llvm.lifetime.start.p0(i64 8, ptr %7) #16
  %26 = load i64, ptr %5, align 8, !tbaa !12
  %27 = load i64, ptr %6, align 8, !tbaa !12
  %28 = mul i64 100, %27
  %29 = sub i64 %26, %28
  store i64 %29, ptr %7, align 8, !tbaa !12
  call void @llvm.lifetime.start.p0(i64 8, ptr %8) #16
  %30 = load i64, ptr %7, align 8, !tbaa !12
  %31 = shl i64 %30, 16
  %32 = load i64, ptr %6, align 8, !tbaa !12
  %33 = add i64 %31, %32
  store i64 %33, ptr %8, align 8, !tbaa !12
  call void @llvm.lifetime.start.p0(i64 8, ptr %9) #16
  %34 = load i64, ptr %8, align 8, !tbaa !12
  %35 = mul i64 %34, 103
  %36 = udiv i64 %35, 1024
  store i64 %36, ptr %9, align 8, !tbaa !12
  %37 = load i64, ptr %9, align 8, !tbaa !12
  %38 = and i64 %37, 4222189076152335
  store i64 %38, ptr %9, align 8, !tbaa !12
  %39 = load i64, ptr %8, align 8, !tbaa !12
  %40 = load i64, ptr %9, align 8, !tbaa !12
  %41 = mul i64 10, %40
  %42 = sub i64 %39, %41
  %43 = shl i64 %42, 8
  %44 = load i64, ptr %9, align 8, !tbaa !12
  %45 = add i64 %44, %43
  store i64 %45, ptr %9, align 8, !tbaa !12
  %46 = load i64, ptr %9, align 8, !tbaa !12
  call void @llvm.lifetime.end.p0(i64 8, ptr %9) #16
  call void @llvm.lifetime.end.p0(i64 8, ptr %8) #16
  call void @llvm.lifetime.end.p0(i64 8, ptr %7) #16
  call void @llvm.lifetime.end.p0(i64 8, ptr %6) #16
  call void @llvm.lifetime.end.p0(i64 8, ptr %5) #16
  call void @llvm.lifetime.end.p0(i64 4, ptr %4) #16
  call void @llvm.lifetime.end.p0(i64 4, ptr %3) #16
  ret i64 %46
}

; Function Attrs: alwaysinline mustprogress uwtable
define internal noundef ptr @_ZN4absl12_GLOBAL__N_113EncodeFullU32EjPc(i32 noundef %0, ptr noundef %1) #8 {
  %3 = alloca ptr, align 8
  %4 = alloca i32, align 4
  %5 = alloca ptr, align 8
  %6 = alloca i64, align 8
  %7 = alloca i32, align 4
  %8 = alloca i32, align 4
  %9 = alloca i32, align 4
  %10 = alloca i64, align 8
  store i32 %0, ptr %4, align 4, !tbaa !34
  store ptr %1, ptr %5, align 8, !tbaa !14
  %11 = load i32, ptr %4, align 4, !tbaa !34
  %12 = icmp ult i32 %11, 10
  br i1 %12, label %13, label %20

13:                                               ; preds = %2
  %14 = load i32, ptr %4, align 4, !tbaa !34
  %15 = add i32 48, %14
  %16 = trunc i32 %15 to i8
  %17 = load ptr, ptr %5, align 8, !tbaa !14
  store i8 %16, ptr %17, align 1, !tbaa !16
  %18 = load ptr, ptr %5, align 8, !tbaa !14
  %19 = getelementptr inbounds i8, ptr %18, i64 1
  store ptr %19, ptr %3, align 8
  br label %59

20:                                               ; preds = %2
  %21 = load i32, ptr %4, align 4, !tbaa !34
  %22 = icmp ult i32 %21, 100000000
  br i1 %22, label %23, label %44

23:                                               ; preds = %20
  call void @llvm.lifetime.start.p0(i64 8, ptr %6) #16
  %24 = load i32, ptr %4, align 4, !tbaa !34
  %25 = call noundef i64 @_ZN4absl12_GLOBAL__N_118PrepareEightDigitsEj(i32 noundef %24)
  store i64 %25, ptr %6, align 8, !tbaa !12
  %26 = load i64, ptr %6, align 8, !tbaa !12
  %27 = icmp ne i64 %26, 0
  call void @llvm.assume(i1 %27)
  call void @llvm.lifetime.start.p0(i64 4, ptr %7) #16
  %28 = load i64, ptr %6, align 8, !tbaa !12
  %29 = call noundef i32 @_ZN4absl11countr_zeroImEENSt9enable_ifIXsr3std11is_unsignedIT_EE5valueEiE4typeES2_(i64 noundef %28) #16
  %30 = and i32 %29, -8
  store i32 %30, ptr %7, align 4, !tbaa !34
  %31 = load ptr, ptr %5, align 8, !tbaa !14
  %32 = load i64, ptr %6, align 8, !tbaa !12
  %33 = add i64 %32, 3472328296227680304
  %34 = load i32, ptr %7, align 4, !tbaa !34
  %35 = zext i32 %34 to i64
  %36 = lshr i64 %33, %35
  call void @_ZN4absl13little_endian7Store64EPvm(ptr noundef %31, i64 noundef %36)
  %37 = load ptr, ptr %5, align 8, !tbaa !14
  %38 = getelementptr inbounds nuw i8, ptr %37, i64 8
  %39 = load i32, ptr %7, align 4, !tbaa !34
  %40 = udiv i32 %39, 8
  %41 = zext i32 %40 to i64
  %42 = sub i64 0, %41
  %43 = getelementptr inbounds i8, ptr %38, i64 %42
  store ptr %43, ptr %3, align 8
  call void @llvm.lifetime.end.p0(i64 4, ptr %7) #16
  call void @llvm.lifetime.end.p0(i64 8, ptr %6) #16
  br label %59

44:                                               ; preds = %20
  call void @llvm.lifetime.start.p0(i64 4, ptr %8) #16
  %45 = load i32, ptr %4, align 4, !tbaa !34
  %46 = udiv i32 %45, 100000000
  store i32 %46, ptr %8, align 4, !tbaa !34
  call void @llvm.lifetime.start.p0(i64 4, ptr %9) #16
  %47 = load i32, ptr %4, align 4, !tbaa !34
  %48 = urem i32 %47, 100000000
  store i32 %48, ptr %9, align 4, !tbaa !34
  call void @llvm.lifetime.start.p0(i64 8, ptr %10) #16
  %49 = load i32, ptr %9, align 4, !tbaa !34
  %50 = call noundef i64 @_ZN4absl12_GLOBAL__N_118PrepareEightDigitsEj(i32 noundef %49)
  %51 = add i64 %50, 3472328296227680304
  store i64 %51, ptr %10, align 8, !tbaa !12
  %52 = load i32, ptr %8, align 4, !tbaa !34
  %53 = load ptr, ptr %5, align 8, !tbaa !14
  %54 = call noundef ptr @_ZN4absl12_GLOBAL__N_113EncodeHundredEjPc(i32 noundef %52, ptr noundef %53)
  store ptr %54, ptr %5, align 8, !tbaa !14
  %55 = load ptr, ptr %5, align 8, !tbaa !14
  %56 = load i64, ptr %10, align 8, !tbaa !12
  call void @_ZN4absl13little_endian7Store64EPvm(ptr noundef %55, i64 noundef %56)
  %57 = load ptr, ptr %5, align 8, !tbaa !14
  %58 = getelementptr inbounds nuw i8, ptr %57, i64 8
  store ptr %58, ptr %3, align 8
  call void @llvm.lifetime.end.p0(i64 8, ptr %10) #16
  call void @llvm.lifetime.end.p0(i64 4, ptr %9) #16
  call void @llvm.lifetime.end.p0(i64 4, ptr %8) #16
  br label %59

59:                                               ; preds = %44, %23, %13
  %60 = load ptr, ptr %3, align 8
  ret ptr %60
}

; Function Attrs: mustprogress uwtable
define dso_local noundef ptr @_ZN4absl16numbers_internal15FastIntToBufferEiPc(i32 noundef %0, ptr noundef %1) #0 {
  %3 = alloca i32, align 4
  %4 = alloca ptr, align 8
  %5 = alloca i32, align 4
  store i32 %0, ptr %3, align 4, !tbaa !34
  store ptr %1, ptr %4, align 8, !tbaa !14
  call void @llvm.lifetime.start.p0(i64 4, ptr %5) #16
  %6 = load i32, ptr %3, align 4, !tbaa !34
  store i32 %6, ptr %5, align 4, !tbaa !34
  %7 = load i32, ptr %3, align 4, !tbaa !34
  %8 = icmp slt i32 %7, 0
  br i1 %8, label %9, label %14

9:                                                ; preds = %2
  %10 = load ptr, ptr %4, align 8, !tbaa !14
  %11 = getelementptr inbounds nuw i8, ptr %10, i32 1
  store ptr %11, ptr %4, align 8, !tbaa !14
  store i8 45, ptr %10, align 1, !tbaa !16
  %12 = load i32, ptr %5, align 4, !tbaa !34
  %13 = sub i32 0, %12
  store i32 %13, ptr %5, align 4, !tbaa !34
  br label %14

14:                                               ; preds = %9, %2
  %15 = load i32, ptr %5, align 4, !tbaa !34
  %16 = load ptr, ptr %4, align 8, !tbaa !14
  %17 = call noundef ptr @_ZN4absl12_GLOBAL__N_113EncodeFullU32EjPc(i32 noundef %15, ptr noundef %16)
  store ptr %17, ptr %4, align 8, !tbaa !14
  %18 = load ptr, ptr %4, align 8, !tbaa !14
  store i8 0, ptr %18, align 1, !tbaa !16
  %19 = load ptr, ptr %4, align 8, !tbaa !14
  call void @llvm.lifetime.end.p0(i64 4, ptr %5) #16
  ret ptr %19
}