; Function Attrs: mustprogress nofree norecurse nosync nounwind willreturn memory(argmem: write, inaccessiblemem: write) uwtable
define dso_local noundef nonnull ptr @_ZN4absl16numbers_internal15FastIntToBufferEiPc(i32 noundef %0, ptr noundef writeonly captures(ret: address, provenance) %1) local_unnamed_addr #5 personality ptr @__gxx_personality_v0 {
  %3 = icmp slt i32 %0, 0
  br i1 %3, label %4, label %7

4:                                                ; preds = %2
  %5 = getelementptr inbounds nuw i8, ptr %1, i64 1
  store i8 45, ptr %1, align 1, !tbaa !8
  %6 = sub i32 0, %0
  br label %7

7:                                                ; preds = %4, %2
  %.07 = phi ptr [ %5, %4 ], [ %1, %2 ]
  %.0 = phi i32 [ %6, %4 ], [ %0, %2 ]
  %8 = icmp ult i32 %.0, 10
  br i1 %8, label %9, label %13

9:                                                ; preds = %7
  %10 = trunc nuw i32 %.0 to i8
  %11 = or disjoint i8 %10, 48
  store i8 %11, ptr %.07, align 1, !tbaa !8
  %12 = getelementptr inbounds nuw i8, ptr %.07, i64 1
  br label %_ZN4absl12_GLOBAL__N_113EncodeFullU32EjPc.exit

13:                                               ; preds = %7
  %14 = icmp ult i32 %.0, 100000000
  br i1 %14, label %15, label %43

15:                                               ; preds = %13
  %16 = udiv i32 %.0, 10000
  %17 = urem i32 %.0, 10000
  %18 = zext nneg i32 %16 to i64
  %19 = zext nneg i32 %17 to i64
  %20 = shl nuw nsw i64 %19, 32
  %21 = or disjoint i64 %20, %18
  %22 = mul nuw nsw i64 %21, 10486
  %23 = lshr i64 %22, 20
  %24 = and i64 %23, 545460846719
  %.neg.i = mul nsw i64 %24, -100
  %25 = add nsw i64 %.neg.i, %21
  %26 = shl nsw i64 %25, 16
  %27 = add nsw i64 %26, %24
  %28 = mul i64 %27, 103
  %29 = lshr i64 %28, 10
  %30 = and i64 %29, 4222189076152335
  %.neg16.i = mul i64 %30, 72057594037927926
  %31 = add i64 %.neg16.i, %27
  %32 = shl i64 %31, 8
  %33 = add i64 %32, %30
  %34 = icmp ne i64 %33, 0
  tail call void @llvm.assume(i1 %34)
  %35 = tail call range(i64 0, 65) i64 @llvm.cttz.i64(i64 %33, i1 true)
  %36 = and i64 %35, 56
  %37 = add i64 %33, 3472328296227680304
  %38 = lshr i64 %37, %36
  store i64 %38, ptr %.07, align 1
  %39 = getelementptr inbounds nuw i8, ptr %.07, i64 8
  %40 = lshr i64 %35, 3
  %41 = sub nsw i64 0, %40
  %42 = getelementptr inbounds i8, ptr %39, i64 %41
  br label %_ZN4absl12_GLOBAL__N_113EncodeFullU32EjPc.exit

43:                                               ; preds = %13
  %44 = udiv i32 %.0, 100000000
  %45 = urem i32 %.0, 100000000
  %46 = udiv i32 %45, 10000
  %47 = urem i32 %45, 10000
  %48 = zext nneg i32 %46 to i64
  %49 = zext nneg i32 %47 to i64
  %50 = shl nuw nsw i64 %49, 32
  %51 = or disjoint i64 %50, %48
  %52 = mul nuw nsw i64 %51, 10486
  %53 = lshr i64 %52, 20
  %54 = and i64 %53, 545460846719
  %.neg.i9 = mul nsw i64 %54, -100
  %55 = add nsw i64 %.neg.i9, %51
  %56 = shl nsw i64 %55, 16
  %57 = add nsw i64 %56, %54
  %58 = mul i64 %57, 103
  %59 = lshr i64 %58, 10
  %60 = and i64 %59, 4222189076152335
  %.neg16.i10 = mul i64 %60, 72057594037927926
  %61 = add i64 %.neg16.i10, %57
  %62 = shl i64 %61, 8
  %63 = or disjoint i64 %60, 3472328296227680304
  %64 = add i64 %63, %62
  %65 = add nsw i32 %44, -10
  %66 = ashr i32 %65, 8
  %narrow.i = mul nuw nsw i32 %44, 103
  %67 = lshr i32 %narrow.i, 10
  %.neg.i11 = mul nsw i32 %67, -10
  %68 = add nsw i32 %.neg.i11, %44
  %69 = or disjoint i32 %67, 12336
  %70 = shl nsw i32 %68, 8
  %71 = add nsw i32 %69, %70
  %72 = and i32 %66, 8
  %73 = lshr i32 %71, %72
  %74 = trunc nuw nsw i32 %73 to i16
  store i16 %74, ptr %.07, align 1
  %75 = getelementptr inbounds nuw i8, ptr %.07, i64 2
  %76 = sext i32 %66 to i64
  %77 = getelementptr inbounds i8, ptr %75, i64 %76
  store i64 %64, ptr %77, align 1
  %78 = getelementptr inbounds nuw i8, ptr %77, i64 8
  br label %_ZN4absl12_GLOBAL__N_113EncodeFullU32EjPc.exit

_ZN4absl12_GLOBAL__N_113EncodeFullU32EjPc.exit:   ; preds = %9, %15, %43
  %.0.i = phi ptr [ %12, %9 ], [ %42, %15 ], [ %78, %43 ]
  store i8 0, ptr %.0.i, align 1, !tbaa !8
  ret ptr %.0.i
}